; ModuleID = '42/1658.c'
source_filename = "42/1658.c"
target datalayout = "e-m:e-p270:32:32-p271:32:32-p272:64:64-i64:64-f80:128-n8:16:32:64-S128"
target triple = "x86_64-pc-linux-gnu"

@.str = private unnamed_addr constant [3 x i8] c"%d\00", align 1
@.str.1 = private unnamed_addr constant [4 x i8] c" %d\00", align 1
@.str.2 = private unnamed_addr constant [2 x i8] c"\0A\00", align 1

; Function Attrs: noinline nounwind uwtable
define dso_local i32 @main() #0 {
  %1 = alloca i32, align 4
  %2 = alloca i32, align 4
  %3 = alloca [100000 x i32], align 16
  %4 = alloca i32, align 4
  %5 = alloca i32, align 4
  %6 = alloca i32, align 4
  store i32 0, i32* %1, align 4
  %7 = call i32 (i8*, ...) @__isoc99_scanf(i8* getelementptr inbounds ([3 x i8], [3 x i8]* @.str, i64 0, i64 0), i32* %2)
  store i32 0, i32* %5, align 4
  br label %8

8:                                                ; preds = %17, %0
  %9 = load i32, i32* %5, align 4
  %10 = load i32, i32* %2, align 4
  %11 = icmp slt i32 %9, %10
  br i1 %11, label %12, label %20

12:                                               ; preds = %8
  %13 = load i32, i32* %5, align 4
  %14 = sext i32 %13 to i64
  %15 = getelementptr inbounds [100000 x i32], [100000 x i32]* %3, i64 0, i64 %14
  %16 = call i32 (i8*, ...) @__isoc99_scanf(i8* getelementptr inbounds ([3 x i8], [3 x i8]* @.str, i64 0, i64 0), i32* %15)
  br label %17

17:                                               ; preds = %12
  %18 = load i32, i32* %5, align 4
  %19 = add nsw i32 %18, 1
  store i32 %19, i32* %5, align 4
  br label %8

20:                                               ; preds = %8
  %21 = call i32 (i8*, ...) @__isoc99_scanf(i8* getelementptr inbounds ([3 x i8], [3 x i8]* @.str, i64 0, i64 0), i32* %4)
  store i32 0, i32* %5, align 4
  br label %22

22:                                               ; preds = %64, %63, %20
  %23 = load i32, i32* %5, align 4
  %24 = load i32, i32* %2, align 4
  %25 = icmp slt i32 %23, %24
  br i1 %25, label %26, label %67

26:                                               ; preds = %22
  %27 = load i32, i32* %5, align 4
  %28 = sext i32 %27 to i64
  %29 = getelementptr inbounds [100000 x i32], [100000 x i32]* %3, i64 0, i64 %28
  %30 = load i32, i32* %29, align 4
  %31 = load i32, i32* %4, align 4
  %32 = icmp eq i32 %30, %31
  br i1 %32, label %33, label %64

33:                                               ; preds = %26
  %34 = load i32, i32* %5, align 4
  %35 = load i32, i32* %2, align 4
  %36 = sub nsw i32 %35, 1
  %37 = icmp eq i32 %34, %36
  br i1 %37, label %38, label %41

38:                                               ; preds = %33
  %39 = load i32, i32* %2, align 4
  %40 = sub nsw i32 %39, 1
  store i32 %40, i32* %2, align 4
  br label %67

41:                                               ; preds = %33
  %42 = load i32, i32* %5, align 4
  store i32 %42, i32* %6, align 4
  br label %43

43:                                               ; preds = %57, %41
  %44 = load i32, i32* %6, align 4
  %45 = load i32, i32* %2, align 4
  %46 = sub nsw i32 %45, 1
  %47 = icmp slt i32 %44, %46
  br i1 %47, label %48, label %60

48:                                               ; preds = %43
  %49 = load i32, i32* %6, align 4
  %50 = add nsw i32 %49, 1
  %51 = sext i32 %50 to i64
  %52 = getelementptr inbounds [100000 x i32], [100000 x i32]* %3, i64 0, i64 %51
  %53 = load i32, i32* %52, align 4
  %54 = load i32, i32* %6, align 4
  %55 = sext i32 %54 to i64
  %56 = getelementptr inbounds [100000 x i32], [100000 x i32]* %3, i64 0, i64 %55
  store i32 %53, i32* %56, align 4
  br label %57

57:                                               ; preds = %48
  %58 = load i32, i32* %6, align 4
  %59 = add nsw i32 %58, 1
  store i32 %59, i32* %6, align 4
  br label %43

60:                                               ; preds = %43
  %61 = load i32, i32* %2, align 4
  %62 = sub nsw i32 %61, 1
  store i32 %62, i32* %2, align 4
  br label %63

63:                                               ; preds = %60
  br label %22

64:                                               ; preds = %26
  %65 = load i32, i32* %5, align 4
  %66 = add nsw i32 %65, 1
  store i32 %66, i32* %5, align 4
  br label %22

67:                                               ; preds = %38, %22
  store i32 0, i32* %5, align 4
  br label %68

68:                                               ; preds = %88, %67
  %69 = load i32, i32* %5, align 4
  %70 = load i32, i32* %2, align 4
  %71 = icmp slt i32 %69, %70
  br i1 %71, label %72, label %91

72:                                               ; preds = %68
  %73 = load i32, i32* %5, align 4
  %74 = icmp eq i32 %73, 0
  br i1 %74, label %75, label %81

75:                                               ; preds = %72
  %76 = load i32, i32* %5, align 4
  %77 = sext i32 %76 to i64
  %78 = getelementptr inbounds [100000 x i32], [100000 x i32]* %3, i64 0, i64 %77
  %79 = load i32, i32* %78, align 4
  %80 = call i32 (i8*, ...) @printf(i8* getelementptr inbounds ([3 x i8], [3 x i8]* @.str, i64 0, i64 0), i32 %79)
  br label %87

81:                                               ; preds = %72
  %82 = load i32, i32* %5, align 4
  %83 = sext i32 %82 to i64
  %84 = getelementptr inbounds [100000 x i32], [100000 x i32]* %3, i64 0, i64 %83
  %85 = load i32, i32* %84, align 4
  %86 = call i32 (i8*, ...) @printf(i8* getelementptr inbounds ([4 x i8], [4 x i8]* @.str.1, i64 0, i64 0), i32 %85)
  br label %87

87:                                               ; preds = %81, %75
  br label %88

88:                                               ; preds = %87
  %89 = load i32, i32* %5, align 4
  %90 = add nsw i32 %89, 1
  store i32 %90, i32* %5, align 4
  br label %68

91:                                               ; preds = %68
  %92 = call i32 (i8*, ...) @printf(i8* getelementptr inbounds ([2 x i8], [2 x i8]* @.str.2, i64 0, i64 0))
  ret i32 0
}

declare dso_local i32 @__isoc99_scanf(i8*, ...) #1

declare dso_local i32 @printf(i8*, ...) #1


!llvm.module.flags = !{!0}
!llvm.ident = !{!1}

!0 = !{i32 1, !"wchar_size", i32 4}
!1 = !{!"clang version 10.0.0-4ubuntu1 "}
